(dp1
S'JSON_AS_ASCII'
p2
I01
sVUPLOAD_FOLDER
p3
Vstatic/images
p4
sVMODELS_FOLDER
p5
V/media/Data/flipvanrijn/models
p6
sS'SESSION_COOKIE_PATH'
p7
NsVMETRICS_FILE
p8
Vdata/metrics.json
p9
sS'LOGGER_NAME'
p10
S'__main__'
p11
sS'SECRET_KEY'
p12
NsS'APPLICATION_ROOT'
p13
NsS'SERVER_NAME'
p14
NsS'PREFERRED_URL_SCHEME'
p15
S'http'
p16
sS'TESTING'
p17
I00
sS'SESSION_COOKIE_HTTPONLY'
p18
I01
sS'USE_X_SENDFILE'
p19
I00
sS'DATA_FOLDER'
p20
V/media/Data/flipvanrijn/datasets/coco/processed/full
p21
sS'SESSION_COOKIE_SECURE'
p22
I00
sS'SESSION_COOKIE_DOMAIN'
p23
NsS'SESSION_COOKIE_NAME'
p24
S'session'
p25
sS'DEBUG'
p26
I01
sS'MAX_CONTENT_LENGTH'
p27
NsS'JSONIFY_PRETTYPRINT_REGULAR'
p28
I01
sS'PERMANENT_SESSION_LIFETIME'
p29
cdatetime
timedelta
p30
(I31
I0
I0
tRp31
sS'PROPAGATE_EXCEPTIONS'
p32
NsS'TRAP_BAD_REQUEST_ERRORS'
p33
I00
sS'JSON_SORT_KEYS'
p34
I01
sVIMAGES_FOLDER
p35
V/media/Data/flipvanrijn/datasets/coco/images
p36
sS'TRAP_HTTP_EXCEPTIONS'
p37
I00
sS'SEND_FILE_MAX_AGE_DEFAULT'
p38
I43200
sS'PRESERVE_CONTEXT_ON_EXCEPTION'
p39
Ns.