(dp1
S'JSON_AS_ASCII'
p2
I01
sVUPLOAD_FOLDER
p3
Vstatic/images
p4
sVMODELS_FOLDER
p5
V/media/Data/flipvanrijn/models
p6
sS'SESSION_COOKIE_PATH'
p7
NsVMETRICS_FILE
p8
Vdata/metrics.json
p9
sS'LOGGER_NAME'
p10
S'__main__'
p11
sS'SECRET_KEY'
p12
NsS'APPLICATION_ROOT'
p13
NsS'SERVER_NAME'
p14
NsS'PREFERRED_URL_SCHEME'
p15
S'http'
p16
sS'TESTING'
p17
I00
sS'TRAP_HTTP_EXCEPTIONS'
p18
I00
sS'USE_X_SENDFILE'
p19
I00
sS'SESSION_COOKIE_SECURE'
p20
I00
sS'SESSION_COOKIE_DOMAIN'
p21
NsS'SESSION_COOKIE_NAME'
p22
S'session'
p23
sS'DEBUG'
p24
I01
sS'MAX_CONTENT_LENGTH'
p25
NsS'JSONIFY_PRETTYPRINT_REGULAR'
p26
I01
sS'PERMANENT_SESSION_LIFETIME'
p27
cdatetime
timedelta
p28
(I31
I0
I0
tRp29
sS'PROPAGATE_EXCEPTIONS'
p30
NsS'TRAP_BAD_REQUEST_ERRORS'
p31
I00
sS'JSON_SORT_KEYS'
p32
I01
sVIMAGES_FOLDER
p33
V/media/Data/flipvanrijn/datasets/coco/images
p34
sS'SESSION_COOKIE_HTTPONLY'
p35
I01
sS'SEND_FILE_MAX_AGE_DEFAULT'
p36
I43200
sS'PRESERVE_CONTEXT_ON_EXCEPTION'
p37
Ns.