(dp1
S'JSON_AS_ASCII'
p2
I01
sVUPLOAD_FOLDER
p3
Vstatic/images
p4
sVMODELS_FOLDER
p5
V/media/Data/flipvanrijn/models
p6
sS'IDB_FOLDER'
p7
V/media/Data/flipvanrijn/datasets/idb
p8
sS'SESSION_COOKIE_PATH'
p9
NsVMETRICS_FILE
p10
Vdata/metrics.json
p11
sS'LOGGER_NAME'
p12
S'__main__'
p13
sS'SECRET_KEY'
p14
NsS'APPLICATION_ROOT'
p15
NsS'SERVER_NAME'
p16
NsS'PREFERRED_URL_SCHEME'
p17
S'http'
p18
sS'TESTING'
p19
I00
sS'IDB_FILE'
p20
V/media/Data/flipvanrijn/datasets/idb/idb.db
p21
sS'SESSION_COOKIE_HTTPONLY'
p22
I01
sS'USE_X_SENDFILE'
p23
I00
sS'DATA_FOLDER'
p24
V/media/Data/flipvanrijn/datasets/coco/processed/reduced
p25
sS'SESSION_COOKIE_SECURE'
p26
I00
sS'SESSION_COOKIE_DOMAIN'
p27
NsS'SESSION_COOKIE_NAME'
p28
S'session'
p29
sS'DEBUG'
p30
I01
sS'MAX_CONTENT_LENGTH'
p31
NsS'JSONIFY_PRETTYPRINT_REGULAR'
p32
I01
sS'PERMANENT_SESSION_LIFETIME'
p33
cdatetime
timedelta
p34
(I31
I0
I0
tRp35
sS'PROPAGATE_EXCEPTIONS'
p36
NsS'TRAP_BAD_REQUEST_ERRORS'
p37
I00
sS'JSON_SORT_KEYS'
p38
I01
sVIMAGES_FOLDER
p39
V/media/Data/flipvanrijn/datasets/coco/images
p40
sS'TRAP_HTTP_EXCEPTIONS'
p41
I00
sS'SEND_FILE_MAX_AGE_DEFAULT'
p42
I43200
sS'PRESERVE_CONTEXT_ON_EXCEPTION'
p43
Ns.